; Function Attrs: mustprogress uwtable
define void @_ZN5Ipopt17RegisteredOptions16AddStringOption3ERKNSt7__cxx1112basic_stringIcSt11char_traitsIcESaIcEEES8_S8_S8_S8_S8_S8_S8_S8_S8_b(ptr noundef nonnull align 8 dereferenceable(128) %0, ptr noundef nonnull align 8 dereferenceable(32) %1, ptr noundef nonnull align 8 dereferenceable(32) %2, ptr noundef nonnull align 8 dereferenceable(32) %3, ptr noundef nonnull align 8 dereferenceable(32) %4, ptr noundef nonnull align 8 dereferenceable(32) %5, ptr noundef nonnull align 8 dereferenceable(32) %6, ptr noundef nonnull align 8 dereferenceable(32) %7, ptr noundef nonnull align 8 dereferenceable(32) %8, ptr noundef nonnull align 8 dereferenceable(32) %9, ptr noundef nonnull align 8 dereferenceable(32) %10, i1 noundef zeroext %11) unnamed_addr #3 align 2 personality ptr @__gxx_personality_v0 {
  %13 = alloca %"class.Ipopt::SmartPtr.21", align 8
  %14 = alloca i32, align 4
  call void @llvm.lifetime.start.p0(i64 8, ptr nonnull %13) #23
  %15 = tail call noalias noundef nonnull dereferenceable(224) ptr @_Znwm(i64 noundef 224) #27
  %16 = getelementptr inbounds nuw i8, ptr %0, i64 120
  %17 = getelementptr inbounds nuw i8, ptr %0, i64 112
  %18 = load i32, ptr %17, align 8, !tbaa !86
  %19 = add nsw i32 %18, 1
  store i32 %19, ptr %17, align 8, !tbaa !86
  invoke void @_ZN5Ipopt16RegisteredOptionC2ERKNSt7__cxx1112basic_stringIcSt11char_traitsIcESaIcEEES8_S8_RKNS_8SmartPtrINS_18RegisteredCategoryEEEib(ptr noundef nonnull align 8 dereferenceable(220) %15, ptr noundef nonnull align 8 dereferenceable(32) %1, ptr noundef nonnull align 8 dereferenceable(32) %2, ptr noundef nonnull align 8 dereferenceable(32) %10, ptr noundef nonnull align 8 dereferenceable(8) %16, i32 noundef %18, i1 noundef zeroext %11)
          to label %20 unwind label %52

20:                                               ; preds = %12
  %21 = getelementptr inbounds nuw i8, ptr %15, i64 8
  %22 = load i32, ptr %21, align 8, !tbaa !59
  %23 = add nsw i32 %22, 1
  store i32 %23, ptr %21, align 8, !tbaa !59
  store ptr %15, ptr %13, align 8, !tbaa !80
  call void @llvm.lifetime.start.p0(i64 4, ptr nonnull %14) #23
  store i32 2, ptr %14, align 4, !tbaa !96
  %24 = load ptr, ptr %15, align 8, !tbaa !32
  %25 = getelementptr inbounds nuw i8, ptr %24, i64 80
  %26 = load ptr, ptr %25, align 8
  invoke void %26(ptr noundef nonnull align 8 dereferenceable(220) %15, ptr noundef nonnull align 4 dereferenceable(4) %14)
          to label %27 unwind label %56

27:                                               ; preds = %20
  call void @llvm.lifetime.end.p0(i64 4, ptr nonnull %14) #23
  %28 = load ptr, ptr %15, align 8, !tbaa !32
  %29 = getelementptr inbounds nuw i8, ptr %28, i64 264
  %30 = load ptr, ptr %29, align 8
  invoke void %30(ptr noundef nonnull align 8 dereferenceable(220) %15, ptr noundef nonnull align 8 dereferenceable(32) %3)
          to label %31 unwind label %54

31:                                               ; preds = %27
  %32 = load ptr, ptr %15, align 8, !tbaa !32
  %33 = getelementptr inbounds nuw i8, ptr %32, i64 208
  %34 = load ptr, ptr %33, align 8
  invoke void %34(ptr noundef nonnull align 8 dereferenceable(220) %15, ptr noundef nonnull align 8 dereferenceable(32) %4, ptr noundef nonnull align 8 dereferenceable(32) %5)
          to label %35 unwind label %54

35:                                               ; preds = %31
  %36 = load ptr, ptr %15, align 8, !tbaa !32
  %37 = getelementptr inbounds nuw i8, ptr %36, i64 208
  %38 = load ptr, ptr %37, align 8
  invoke void %38(ptr noundef nonnull align 8 dereferenceable(220) %15, ptr noundef nonnull align 8 dereferenceable(32) %6, ptr noundef nonnull align 8 dereferenceable(32) %7)
          to label %39 unwind label %54

39:                                               ; preds = %35
  %40 = load ptr, ptr %15, align 8, !tbaa !32
  %41 = getelementptr inbounds nuw i8, ptr %40, i64 208
  %42 = load ptr, ptr %41, align 8
  invoke void %42(ptr noundef nonnull align 8 dereferenceable(220) %15, ptr noundef nonnull align 8 dereferenceable(32) %8, ptr noundef nonnull align 8 dereferenceable(32) %9)
          to label %43 unwind label %54

43:                                               ; preds = %39
  invoke void @_ZN5Ipopt17RegisteredOptions9AddOptionERKNS_8SmartPtrINS_16RegisteredOptionEEE(ptr noundef nonnull align 8 dereferenceable(128) %0, ptr noundef nonnull align 8 dereferenceable(8) %13)
          to label %44 unwind label %54

44:                                               ; preds = %43
  %45 = load i32, ptr %21, align 8, !tbaa !59
  %46 = add nsw i32 %45, -1
  store i32 %46, ptr %21, align 8, !tbaa !59
  %47 = icmp eq i32 %46, 0
  br i1 %47, label %48, label %_ZN5Ipopt8SmartPtrINS_16RegisteredOptionEED2Ev.exit

48:                                               ; preds = %44
  %49 = load ptr, ptr %15, align 8, !tbaa !32
  %50 = getelementptr inbounds nuw i8, ptr %49, i64 8
  %51 = load ptr, ptr %50, align 8
  call void %51(ptr noundef nonnull align 8 dereferenceable(220) %15) #23
  br label %_ZN5Ipopt8SmartPtrINS_16RegisteredOptionEED2Ev.exit

_ZN5Ipopt8SmartPtrINS_16RegisteredOptionEED2Ev.exit: ; preds = %44, %48
  call void @llvm.lifetime.end.p0(i64 8, ptr nonnull %13) #23
  ret void

52:                                               ; preds = %12
  %53 = landingpad { ptr, i32 }
          cleanup
  tail call void @_ZdlPvm(ptr noundef nonnull %15, i64 noundef 224) #24
  br label %_ZN5Ipopt8SmartPtrINS_16RegisteredOptionEED2Ev.exit18

54:                                               ; preds = %43, %39, %35, %31, %27
  %55 = landingpad { ptr, i32 }
          cleanup
  br label %58

56:                                               ; preds = %20
  %57 = landingpad { ptr, i32 }
          cleanup
  call void @llvm.lifetime.end.p0(i64 4, ptr nonnull %14) #23
  br label %58

58:                                               ; preds = %54, %56
  %.pn = phi { ptr, i32 } [ %55, %54 ], [ %57, %56 ]
  %59 = load i32, ptr %21, align 8, !tbaa !59
  %60 = add nsw i32 %59, -1
  store i32 %60, ptr %21, align 8, !tbaa !59
  %61 = icmp eq i32 %60, 0
  br i1 %61, label %62, label %_ZN5Ipopt8SmartPtrINS_16RegisteredOptionEED2Ev.exit18

62:                                               ; preds = %58
  %63 = load ptr, ptr %15, align 8, !tbaa !32
  %64 = getelementptr inbounds nuw i8, ptr %63, i64 8
  %65 = load ptr, ptr %64, align 8
  call void %65(ptr noundef nonnull align 8 dereferenceable(220) %15) #23
  br label %_ZN5Ipopt8SmartPtrINS_16RegisteredOptionEED2Ev.exit18

_ZN5Ipopt8SmartPtrINS_16RegisteredOptionEED2Ev.exit18: ; preds = %62, %58, %52
  %.pn.pn = phi { ptr, i32 } [ %53, %52 ], [ %.pn, %58 ], [ %.pn, %62 ]
  call void @llvm.lifetime.end.p0(i64 8, ptr nonnull %13) #23
  resume { ptr, i32 } %.pn.pn
}